target datalayout = "e-m:e-p270:32:32-p271:32:32-p272:64:64-i64:64-i128:128-f80:128-n8:16:32:64-S128"
target triple = "x86_64-pc-linux-gnu"

@.str.240 = private unnamed_addr constant [13 x i8] c"PyA2.~PyA2()\00", align 1

; Function Attrs: mustprogress nounwind uwtable
define internal void @_ZZ32test_submodule_virtual_functionsRN8pybind117module_EEN2A2D2Ev(ptr noundef nonnull align 8 dereferenceable(8) %0) unnamed_addr #5 align 2 {
  %2 = alloca ptr, align 8
  store ptr %0, ptr %2, align 8, !tbaa !2387
  ret void
}

; Function Attrs: mustprogress nounwind uwtable
define internal void @_ZZ32test_submodule_virtual_functionsRN8pybind117module_EEN4PyA2D2Ev(ptr noundef nonnull align 8 dereferenceable(8) %0) unnamed_addr #5 align 2 personality ptr @__gxx_personality_v0 {
  %2 = alloca ptr, align 8
  store ptr %0, ptr %2, align 8, !tbaa !2416
  %3 = load ptr, ptr %2, align 8
  store ptr getelementptr inbounds inrange(-16, 24) ({ [5 x ptr] }, ptr @_ZTVZ32test_submodule_virtual_functionsRN8pybind117module_EE4PyA2, i32 0, i32 0, i32 2), ptr %3, align 8, !tbaa !118
  invoke void @_ZN8pybind115printILNS_19return_value_policyE1EJRA13_KcEEEvDpOT0_(ptr noundef nonnull align 1 dereferenceable(13) @.str.240)
          to label %4 unwind label %5

4:                                                ; preds = %1
  call void @_ZZ32test_submodule_virtual_functionsRN8pybind117module_EEN2A2D2Ev(ptr noundef nonnull align 8 dereferenceable(8) %3) #24
  ret void

5:                                                ; preds = %1
  %6 = landingpad { ptr, i32 }
          catch ptr null
  %7 = extractvalue { ptr, i32 } %6, 0
  call void @__clang_call_terminate(ptr %7) #29
  unreachable
}